(dp0
Vengine
p1
Vpdflatex
p2
sVpackages
p3
c__builtin__
set
p4
((lp5
Vbibentry
p6
aVgensymb
p7
aVhyperref
p8
aVurl
p9
aVamsmath
p10
aVtimes
p11
aVmultirow
p12
aVenumerate
p13
aVamsfonts
p14
aVgraphicx
p15
aVnatbib
p16
aVamssymb
p17
atp18
Rp19
sVfiles_with_guttermarks
p20
g4
((lp21
V/repos/github/neilireson/papers/mobilise-d/mobilise-d.tex
p22
aV/repos/github/neilireson/papers/mobilise-d/./mobilise-d.tex
p23
aS'mobilise-d.tex'
p24
atp25
Rp26
sVsynctex
p27
I01
s.