(dp0
Vengine
p1
Vpdflatex
p2
sVpackages
p3
c__builtin__
set
p4
((lp5
Vhyperref
p6
aVgensymb
p7
aVurl
p8
aVamsmath
p9
aVtimes
p10
aVmultirow
p11
aVenumerate
p12
aVamsfonts
p13
aVgraphicx
p14
aVnatbib
p15
aVamssymb
p16
atp17
Rp18
sVfiles_with_guttermarks
p19
g4
((lp20
V/repos/github/neilireson/papers/mobilise-d/mobilise-d.tex
p21
aV/repos/github/neilireson/papers/mobilise-d/./mobilise-d.tex
p22
aS'mobilise-d.tex'
p23
atp24
Rp25
sVsynctex
p26
I01
s.